(dp0
S'content_length'
p1
I1
sS'content'
p2
(lp3
(dp4
S'tx_id'
p5
S'285858'
p6
sS'product'
p7
S'softaculous'
p8
sS'ipaddr'
p9
S'10.0.0.1'
p10
sS'vendor'
p11
g8
sasS'request'
p12
S'_cancel_license'
p13
sS'message_type'
p14
S'request'
p15
s.