(dp0
S'content_length'
p1
I1
sS'content'
p2
(lp3
(dp4
S'autorenew'
p5
S'false'
p6
sS'product'
p7
S'softaculous'
p8
sS'vendor'
p9
g8
sS'server_type'
p10
S'vps'
p11
sS'ip'
p12
S'10.0.0.1'
p13
sS'time_span'
p14
S'1M'
p15
sasS'request'
p16
S'add_license'
p17
sS'message_type'
p18
S'request'
p19
s.