(dp0
S'content_length'
p1
I1
sS'content'
p2
(lp3
(dp4
S'vendor'
p5
S'softaculous'
p6
sS'product'
p7
g6
sS'ipaddr'
p8
S'208.86.156.241'
p9
sasS'request'
p10
S'get_license_detail'
p11
sS'message_type'
p12
S'request'
p13
s.