(dp0
S'content_length'
p1
I1
sS'content'
p2
(lp3
(dp4
S'product'
p5
S'softaculous'
p6
sS'vendor'
p7
g6
sS'key'
p8
S'41686-28594-83261-22587-87638'
p9
sasS'request'
p10
S'get_license_logs'
p11
sS'message_type'
p12
S'request'
p13
s.