(dp0
S'content_length'
p1
I1
sS'content'
p2
(lp3
(dp4
S'tx_id'
p5
S'285858'
p6
sS'product'
p7
S'softaculous'
p8
sS'vendor'
p9
g8
sS'ip'
p10
S'10.0.0.1'
p11
sasS'request'
p12
S'refund_license'
p13
sS'message_type'
p14
S'request'
p15
s.