(dp0
S'content_length'
p1
I1
sS'content'
p2
(lp3
(dp4
S'vendor'
p5
S'softaculous'
p6
sS'product'
p7
g6
sS'ipaddr'
p8
S'10.0.0.1'
p9
sS'transaction_id'
p10
S'297710'
p11
sasS'request'
p12
S'refund_license'
p13
sS'message_type'
p14
S'request'
p15
s.