(dp0
S'content_length'
p1
I1
sS'content'
p2
(lp3
(dp4
S'product'
p5
S'LSWS'
p6
sS'server_type'
p7
S'vps'
p8
sS'vendor'
p9
S'litespeed'
p10
sS'payment_type'
p11
S'credit'
p12
sS'time_span'
p13
S'1M'
p14
sasS'request'
p15
S'add_license'
p16
sS'message_type'
p17
S'request'
p18
s.