(dp0
S'content_length'
p1
I1
sS'content'
p2
(lp3
(dp4
S'ip'
p5
S''
p6
sS'product'
p7
S'LSWS'
p8
sS'ipaddr'
p9
S'173.199.146.208'
p10
sS'vendor'
p11
S'litespeed'
p12
sasS'request'
p13
S'get_license_detail'
p14
sS'message_type'
p15
S'request'
p16
s.