(dp0
S'content_length'
p1
I1
sS'content'
p2
(lp3
(dp4
S'vendor'
p5
S'litespeed'
p6
sS'product'
p7
S'LSWS'
p8
sS'ipaddr'
p9
S'173.199.161.76'
p10
sasS'request'
p11
S'get_license_detail'
p12
sS'message_type'
p13
S'request'
p14
s.