(dp0
S'content_length'
p1
I1
sS'content'
p2
(lp3
(dp4
S'license_uid'
p5
S'10.0.0.1'
p6
sS'product'
p7
S'LSWS'
p8
sS'vendor'
p9
S'litespeed'
p10
sasS'request'
p11
S'get_license_logs'
p12
sS'message_type'
p13
S'request'
p14
s.