(dp0
S'content_length'
p1
I1
sS'content'
p2
(lp3
(dp4
S'serial'
p5
S'XXXX-YYYY-ZZZZ-WWWW'
p6
sS'vendor'
p7
S'litespeed'
p8
sS'product'
p9
S'LSWS'
p10
sasS'request'
p11
S'refund_license'
p12
sS'message_type'
p13
S'request'
p14
s.