(dp0
S'content_length'
p1
I1
sS'content'
p2
(lp3
(dp4
S'product'
p5
S'fantastico'
p6
sS'vendor'
p7
S'netenberg'
p8
sasS'request'
p9
S'get_license_identifier'
p10
sS'message_type'
p11
S'request'
p12
s.