(dp0
S'content_length'
p1
I1
sS'content'
p2
(lp3
(dp4
S'ipaddr'
p5
S'209.188.94.204'
p6
sS'product'
p7
S'cpanel'
p8
sS'vendor'
p9
g8
sasS'request'
p10
S'get_license_risk_data'
p11
sS'message_type'
p12
S'request'
p13
s.