(dp0
S'content_length'
p1
I1
sS'content'
p2
(lp3
(dp4
S'product'
p5
S'cpanel'
p6
sS'vendor'
p7
S'cpanel'
p8
sS'ipaddr'
p9
S'173.199.191.128'
p10
sS'package_id'
p11
I780
sS'license_id'
p12
S'10093910'
p13
sS'group_id'
p14
I43541
sasS'request'
p15
S'modify_license'
p16
sS'message_type'
p17
S'request'
p18
s.